target datalayout = "e-m:e-p270:32:32-p271:32:32-p272:64:64-i64:64-i128:128-f80:128-n8:16:32:64-S128"
target triple = "x86_64-pc-linux-gnu"

%struct._object = type { %union.anon.41, ptr }
%union.anon.41 = type { i64 }
%struct.anon.42 = type { i32, i32 }
%struct.__sigset_t = type { [16 x i64] }

; Function Attrs: alwaysinline nounwind uwtable
define internal i32 @_Py_IsImmortal(ptr noundef %0) #4 {
  %2 = alloca ptr, align 8
  store ptr %0, ptr %2, align 8, !tbaa !179
  %3 = load ptr, ptr %2, align 8, !tbaa !179
  %4 = getelementptr inbounds nuw %struct._object, ptr %3, i32 0, i32 0
  %5 = getelementptr inbounds nuw %struct.anon.42, ptr %4, i32 0, i32 0
  %6 = load i32, ptr %5, align 8, !tbaa !186
  %7 = icmp slt i32 %6, 0
  %8 = zext i1 %7 to i32
  ret i32 %8
}

; Function Attrs: alwaysinline nounwind uwtable
define internal void @Py_DECREF(ptr noundef %0) #4 {
  %2 = alloca ptr, align 8
  store ptr %0, ptr %2, align 8, !tbaa !179
  %3 = load ptr, ptr %2, align 8, !tbaa !179
  %4 = call i32 @_Py_IsImmortal(ptr noundef %3)
  %5 = icmp ne i32 %4, 0
  br i1 %5, label %6, label %7

6:                                                ; preds = %1
  br label %16

7:                                                ; preds = %1
  %8 = load ptr, ptr %2, align 8, !tbaa !179
  %9 = getelementptr inbounds nuw %struct._object, ptr %8, i32 0, i32 0
  %10 = getelementptr inbounds nuw %struct.anon.42, ptr %9, i32 0, i32 0
  %11 = load i32, ptr %10, align 8, !tbaa !186
  %12 = add i32 %11, -1
  store i32 %12, ptr %10, align 8, !tbaa !186
  %13 = icmp eq i32 %12, 0
  br i1 %13, label %14, label %16

14:                                               ; preds = %7
  %15 = load ptr, ptr %2, align 8, !tbaa !179
  call void @_Py_Dealloc(ptr noundef %15)
  br label %16

16:                                               ; preds = %6, %14, %7
  ret void
}

; Function Attrs: nounwind uwtable
define internal ptr @sigset_to_set(ptr noundef byval(%struct.__sigset_t) align 8 %0) #0 {
  %2 = alloca ptr, align 8
  %3 = alloca ptr, align 8
  %4 = alloca ptr, align 8
  %5 = alloca i32, align 4
  %6 = alloca i32, align 4
  call void @llvm.lifetime.start.p0(i64 8, ptr %3) #10
  call void @llvm.lifetime.start.p0(i64 8, ptr %4) #10
  call void @llvm.lifetime.start.p0(i64 4, ptr %5) #10
  %7 = call ptr @PySet_New(ptr noundef null)
  store ptr %7, ptr %4, align 8, !tbaa !179
  %8 = load ptr, ptr %4, align 8, !tbaa !179
  %9 = icmp eq ptr %8, null
  br i1 %9, label %10, label %11

10:                                               ; preds = %1
  store ptr null, ptr %2, align 8
  store i32 1, ptr %6, align 4
  br label %43

11:                                               ; preds = %1
  store i32 1, ptr %5, align 4, !tbaa !4
  br label %12

12:                                               ; preds = %38, %11
  %13 = load i32, ptr %5, align 4, !tbaa !4
  %14 = icmp slt i32 %13, 65
  br i1 %14, label %15, label %41

15:                                               ; preds = %12
  %16 = load i32, ptr %5, align 4, !tbaa !4
  %17 = call i32 @sigismember(ptr noundef %0, i32 noundef %16) #10
  %18 = icmp ne i32 %17, 1
  br i1 %18, label %19, label %20

19:                                               ; preds = %15
  br label %38

20:                                               ; preds = %15
  %21 = load i32, ptr %5, align 4, !tbaa !4
  %22 = sext i32 %21 to i64
  %23 = call ptr @PyLong_FromLong(i64 noundef %22)
  store ptr %23, ptr %3, align 8, !tbaa !179
  %24 = load ptr, ptr %3, align 8, !tbaa !179
  %25 = icmp eq ptr %24, null
  br i1 %25, label %26, label %28

26:                                               ; preds = %20
  %27 = load ptr, ptr %4, align 8, !tbaa !179
  call void @Py_DECREF(ptr noundef %27)
  store ptr null, ptr %2, align 8
  store i32 1, ptr %6, align 4
  br label %43

28:                                               ; preds = %20
  %29 = load ptr, ptr %4, align 8, !tbaa !179
  %30 = load ptr, ptr %3, align 8, !tbaa !179
  %31 = call i32 @PySet_Add(ptr noundef %29, ptr noundef %30)
  %32 = icmp eq i32 %31, -1
  br i1 %32, label %33, label %36

33:                                               ; preds = %28
  %34 = load ptr, ptr %3, align 8, !tbaa !179
  call void @Py_DECREF(ptr noundef %34)
  %35 = load ptr, ptr %4, align 8, !tbaa !179
  call void @Py_DECREF(ptr noundef %35)
  store ptr null, ptr %2, align 8
  store i32 1, ptr %6, align 4
  br label %43

36:                                               ; preds = %28
  %37 = load ptr, ptr %3, align 8, !tbaa !179
  call void @Py_DECREF(ptr noundef %37)
  br label %38

38:                                               ; preds = %36, %19
  %39 = load i32, ptr %5, align 4, !tbaa !4
  %40 = add i32 %39, 1
  store i32 %40, ptr %5, align 4, !tbaa !4
  br label %12, !llvm.loop !230

41:                                               ; preds = %12
  %42 = load ptr, ptr %4, align 8, !tbaa !179
  store ptr %42, ptr %2, align 8
  store i32 1, ptr %6, align 4
  br label %43

43:                                               ; preds = %41, %33, %26, %10
  call void @llvm.lifetime.end.p0(i64 4, ptr %5) #10
  call void @llvm.lifetime.end.p0(i64 8, ptr %4) #10
  call void @llvm.lifetime.end.p0(i64 8, ptr %3) #10
  %44 = load ptr, ptr %2, align 8
  ret ptr %44
}