; Function Attrs: nounwind uwtable
define internal fastcc ptr @sigset_to_set(ptr noundef byval(%struct.__sigset_t) align 8 %0) unnamed_addr #2 {
  %2 = tail call ptr @PySet_New(ptr noundef null) #15
  %3 = icmp eq ptr %2, null
  br i1 %3, label %Py_DECREF.exit21, label %.preheader

.preheader:                                       ; preds = %1, %Py_DECREF.exit
  %indvars.iv = phi i64 [ %indvars.iv.next, %Py_DECREF.exit ], [ 1, %1 ]
  %4 = trunc nuw nsw i64 %indvars.iv to i32
  %5 = call i32 @sigismember(ptr noundef nonnull %0, i32 noundef %4) #15
  %.not = icmp eq i32 %5, 1
  br i1 %.not, label %6, label %Py_DECREF.exit

6:                                                ; preds = %.preheader
  %7 = call ptr @PyLong_FromLong(i64 noundef %indvars.iv) #15
  %8 = icmp eq ptr %7, null
  br i1 %8, label %9, label %14

9:                                                ; preds = %6
  %10 = load i32, ptr %2, align 8, !tbaa !180
  %.not.i20 = icmp sgt i32 %10, -1
  br i1 %.not.i20, label %11, label %Py_DECREF.exit21

11:                                               ; preds = %9
  %12 = add nsw i32 %10, -1
  store i32 %12, ptr %2, align 8, !tbaa !180
  %13 = icmp eq i32 %12, 0
  br i1 %13, label %Py_DECREF.exit21.sink.split, label %Py_DECREF.exit21

14:                                               ; preds = %6
  %15 = call i32 @PySet_Add(ptr noundef nonnull %2, ptr noundef nonnull %7) #15
  %16 = icmp eq i32 %15, -1
  %17 = load i32, ptr %7, align 8, !tbaa !180
  %.not.i18 = icmp sgt i32 %17, -1
  br i1 %16, label %18, label %27

18:                                               ; preds = %14
  br i1 %.not.i18, label %19, label %Py_DECREF.exit19

19:                                               ; preds = %18
  %20 = add nsw i32 %17, -1
  store i32 %20, ptr %7, align 8, !tbaa !180
  %21 = icmp eq i32 %20, 0
  br i1 %21, label %22, label %Py_DECREF.exit19

22:                                               ; preds = %19
  call void @_Py_Dealloc(ptr noundef nonnull %7) #15
  br label %Py_DECREF.exit19

Py_DECREF.exit19:                                 ; preds = %18, %19, %22
  %23 = load i32, ptr %2, align 8, !tbaa !180
  %.not.i16 = icmp sgt i32 %23, -1
  br i1 %.not.i16, label %24, label %Py_DECREF.exit21

24:                                               ; preds = %Py_DECREF.exit19
  %25 = add nsw i32 %23, -1
  store i32 %25, ptr %2, align 8, !tbaa !180
  %26 = icmp eq i32 %25, 0
  br i1 %26, label %Py_DECREF.exit21.sink.split, label %Py_DECREF.exit21

27:                                               ; preds = %14
  br i1 %.not.i18, label %28, label %Py_DECREF.exit

28:                                               ; preds = %27
  %29 = add nsw i32 %17, -1
  store i32 %29, ptr %7, align 8, !tbaa !180
  %30 = icmp eq i32 %29, 0
  br i1 %30, label %31, label %Py_DECREF.exit

31:                                               ; preds = %28
  call void @_Py_Dealloc(ptr noundef nonnull %7) #15
  br label %Py_DECREF.exit

Py_DECREF.exit:                                   ; preds = %31, %28, %27, %.preheader
  %indvars.iv.next = add nuw nsw i64 %indvars.iv, 1
  %exitcond.not = icmp eq i64 %indvars.iv.next, 65
  br i1 %exitcond.not, label %Py_DECREF.exit21, label %.preheader, !llvm.loop !224

Py_DECREF.exit21.sink.split:                      ; preds = %24, %11
  call void @_Py_Dealloc(ptr noundef nonnull %2) #15
  br label %Py_DECREF.exit21

Py_DECREF.exit21:                                 ; preds = %Py_DECREF.exit, %Py_DECREF.exit21.sink.split, %24, %Py_DECREF.exit19, %11, %9, %1
  %.013 = phi ptr [ null, %1 ], [ null, %9 ], [ null, %11 ], [ null, %Py_DECREF.exit19 ], [ null, %24 ], [ null, %Py_DECREF.exit21.sink.split ], [ %2, %Py_DECREF.exit ]
  ret ptr %.013
}